target datalayout = "e-m:e-p270:32:32-p271:32:32-p272:64:64-i64:64-i128:128-f80:128-n8:16:32:64-S128"
target triple = "x86_64-pc-linux-gnu"

%struct.Mv = type { i32, i32 }
%struct.RefPicList = type { [29 x %struct.VVCRefPic], i32 }
%struct.VVCRefPic = type { ptr, i32, i32, i32, [2 x i32] }

@ff_log2_tab = external constant [256 x i8], align 16

; Function Attrs: alwaysinline nounwind willreturn memory(none) uwtable
define internal signext i8 @av_clip_int8_c(i32 noundef %0) #2 {
  %2 = alloca i8, align 1
  %3 = alloca i32, align 4
  store i32 %0, ptr %3, align 4, !tbaa !9
  %4 = load i32, ptr %3, align 4, !tbaa !9
  %5 = add i32 %4, 128
  %6 = and i32 %5, -256
  %7 = icmp ne i32 %6, 0
  br i1 %7, label %8, label %13

8:                                                ; preds = %1
  %9 = load i32, ptr %3, align 4, !tbaa !9
  %10 = ashr i32 %9, 31
  %11 = xor i32 %10, 127
  %12 = trunc i32 %11 to i8
  store i8 %12, ptr %2, align 1
  br label %16

13:                                               ; preds = %1
  %14 = load i32, ptr %3, align 4, !tbaa !9
  %15 = trunc i32 %14 to i8
  store i8 %15, ptr %2, align 1
  br label %16

16:                                               ; preds = %13, %8
  %17 = load i8, ptr %2, align 1
  ret i8 %17
}

; Function Attrs: alwaysinline nounwind willreturn memory(none) uwtable
define internal i32 @ff_log2_c(i32 noundef %0) #2 {
  %2 = alloca i32, align 4
  %3 = alloca i32, align 4
  store i32 %0, ptr %2, align 4, !tbaa !9
  call void @llvm.lifetime.start.p0(i64 4, ptr %3) #9
  store i32 0, ptr %3, align 4, !tbaa !9
  %4 = load i32, ptr %2, align 4, !tbaa !9
  %5 = and i32 %4, -65536
  %6 = icmp ne i32 %5, 0
  br i1 %6, label %7, label %12

7:                                                ; preds = %1
  %8 = load i32, ptr %2, align 4, !tbaa !9
  %9 = lshr i32 %8, 16
  store i32 %9, ptr %2, align 4, !tbaa !9
  %10 = load i32, ptr %3, align 4, !tbaa !9
  %11 = add nsw i32 %10, 16
  store i32 %11, ptr %3, align 4, !tbaa !9
  br label %12

12:                                               ; preds = %7, %1
  %13 = load i32, ptr %2, align 4, !tbaa !9
  %14 = and i32 %13, 65280
  %15 = icmp ne i32 %14, 0
  br i1 %15, label %16, label %21

16:                                               ; preds = %12
  %17 = load i32, ptr %2, align 4, !tbaa !9
  %18 = lshr i32 %17, 8
  store i32 %18, ptr %2, align 4, !tbaa !9
  %19 = load i32, ptr %3, align 4, !tbaa !9
  %20 = add nsw i32 %19, 8
  store i32 %20, ptr %3, align 4, !tbaa !9
  br label %21

21:                                               ; preds = %16, %12
  %22 = load i32, ptr %2, align 4, !tbaa !9
  %23 = zext i32 %22 to i64
  %24 = getelementptr inbounds nuw [256 x i8], ptr @ff_log2_tab, i64 0, i64 %23
  %25 = load i8, ptr %24, align 1, !tbaa !35
  %26 = zext i8 %25 to i32
  %27 = load i32, ptr %3, align 4, !tbaa !9
  %28 = add nsw i32 %27, %26
  store i32 %28, ptr %3, align 4, !tbaa !9
  %29 = load i32, ptr %3, align 4, !tbaa !9
  call void @llvm.lifetime.end.p0(i64 4, ptr %3) #9
  ret i32 %29
}

; Function Attrs: nounwind uwtable
define void @ff_vvc_mv_scale(ptr noundef %0, ptr noundef %1, i32 noundef %2, i32 noundef %3) #0 {
  %5 = alloca ptr, align 8
  %6 = alloca ptr, align 8
  %7 = alloca i32, align 4
  %8 = alloca i32, align 4
  %9 = alloca i32, align 4
  %10 = alloca i32, align 4
  store ptr %0, ptr %5, align 8, !tbaa !4
  store ptr %1, ptr %6, align 8, !tbaa !4
  store i32 %2, ptr %7, align 4, !tbaa !9
  store i32 %3, ptr %8, align 4, !tbaa !9
  call void @llvm.lifetime.start.p0(i64 4, ptr %9) #9
  call void @llvm.lifetime.start.p0(i64 4, ptr %10) #9
  %11 = load i32, ptr %7, align 4, !tbaa !9
  %12 = call signext i8 @av_clip_int8_c(i32 noundef %11) #10
  %13 = sext i8 %12 to i32
  store i32 %13, ptr %7, align 4, !tbaa !9
  %14 = load i32, ptr %8, align 4, !tbaa !9
  %15 = call signext i8 @av_clip_int8_c(i32 noundef %14) #10
  %16 = sext i8 %15 to i32
  store i32 %16, ptr %8, align 4, !tbaa !9
  %17 = load i32, ptr %7, align 4, !tbaa !9
  %18 = call i32 @llvm.abs.i32(i32 %17, i1 true)
  %19 = ashr i32 %18, 1
  %20 = add nsw i32 16384, %19
  %21 = load i32, ptr %7, align 4, !tbaa !9
  %22 = sdiv i32 %20, %21
  store i32 %22, ptr %9, align 4, !tbaa !9
  %23 = load i32, ptr %8, align 4, !tbaa !9
  %24 = load i32, ptr %9, align 4, !tbaa !9
  %25 = mul nsw i32 %23, %24
  %26 = add nsw i32 %25, 32
  %27 = ashr i32 %26, 6
  %28 = call i32 @av_clip_intp2_c(i32 noundef %27, i32 noundef 12) #10
  store i32 %28, ptr %10, align 4, !tbaa !9
  %29 = load i32, ptr %10, align 4, !tbaa !9
  %30 = load ptr, ptr %6, align 8, !tbaa !4
  %31 = getelementptr inbounds nuw %struct.Mv, ptr %30, i32 0, i32 0
  %32 = load i32, ptr %31, align 4, !tbaa !11
  %33 = mul nsw i32 %29, %32
  %34 = add nsw i32 %33, 127
  %35 = load i32, ptr %10, align 4, !tbaa !9
  %36 = load ptr, ptr %6, align 8, !tbaa !4
  %37 = getelementptr inbounds nuw %struct.Mv, ptr %36, i32 0, i32 0
  %38 = load i32, ptr %37, align 4, !tbaa !11
  %39 = mul nsw i32 %35, %38
  %40 = icmp slt i32 %39, 0
  %41 = zext i1 %40 to i32
  %42 = add nsw i32 %34, %41
  %43 = ashr i32 %42, 8
  %44 = call i32 @av_clip_intp2_c(i32 noundef %43, i32 noundef 17) #10
  %45 = load ptr, ptr %5, align 8, !tbaa !4
  %46 = getelementptr inbounds nuw %struct.Mv, ptr %45, i32 0, i32 0
  store i32 %44, ptr %46, align 4, !tbaa !11
  %47 = load i32, ptr %10, align 4, !tbaa !9
  %48 = load ptr, ptr %6, align 8, !tbaa !4
  %49 = getelementptr inbounds nuw %struct.Mv, ptr %48, i32 0, i32 1
  %50 = load i32, ptr %49, align 4, !tbaa !13
  %51 = mul nsw i32 %47, %50
  %52 = add nsw i32 %51, 127
  %53 = load i32, ptr %10, align 4, !tbaa !9
  %54 = load ptr, ptr %6, align 8, !tbaa !4
  %55 = getelementptr inbounds nuw %struct.Mv, ptr %54, i32 0, i32 1
  %56 = load i32, ptr %55, align 4, !tbaa !13
  %57 = mul nsw i32 %53, %56
  %58 = icmp slt i32 %57, 0
  %59 = zext i1 %58 to i32
  %60 = add nsw i32 %52, %59
  %61 = ashr i32 %60, 8
  %62 = call i32 @av_clip_intp2_c(i32 noundef %61, i32 noundef 17) #10
  %63 = load ptr, ptr %5, align 8, !tbaa !4
  %64 = getelementptr inbounds nuw %struct.Mv, ptr %63, i32 0, i32 1
  store i32 %62, ptr %64, align 4, !tbaa !13
  call void @llvm.lifetime.end.p0(i64 4, ptr %10) #9
  call void @llvm.lifetime.end.p0(i64 4, ptr %9) #9
  ret void
}

; Function Attrs: alwaysinline nounwind willreturn memory(none) uwtable
define internal i32 @av_clip_intp2_c(i32 noundef %0, i32 noundef %1) #2 {
  %3 = alloca i32, align 4
  %4 = alloca i32, align 4
  %5 = alloca i32, align 4
  store i32 %0, ptr %4, align 4, !tbaa !9
  store i32 %1, ptr %5, align 4, !tbaa !9
  %6 = load i32, ptr %4, align 4, !tbaa !9
  %7 = load i32, ptr %5, align 4, !tbaa !9
  %8 = shl i32 1, %7
  %9 = add i32 %6, %8
  %10 = load i32, ptr %5, align 4, !tbaa !9
  %11 = shl i32 2, %10
  %12 = sub i32 %11, 1
  %13 = xor i32 %12, -1
  %14 = and i32 %9, %13
  %15 = icmp ne i32 %14, 0
  br i1 %15, label %16, label %23

16:                                               ; preds = %2
  %17 = load i32, ptr %4, align 4, !tbaa !9
  %18 = ashr i32 %17, 31
  %19 = load i32, ptr %5, align 4, !tbaa !9
  %20 = shl i32 1, %19
  %21 = sub nsw i32 %20, 1
  %22 = xor i32 %18, %21
  store i32 %22, ptr %3, align 4
  br label %25

23:                                               ; preds = %2
  %24 = load i32, ptr %4, align 4, !tbaa !9
  store i32 %24, ptr %3, align 4
  br label %25

25:                                               ; preds = %23, %16
  %26 = load i32, ptr %3, align 4
  ret i32 %26
}

; Function Attrs: alwaysinline nounwind uwtable
define internal void @mv_compression(ptr noundef %0) #8 {
  %2 = alloca ptr, align 8
  %3 = alloca [2 x i32], align 4
  %4 = alloca i32, align 4
  %5 = alloca i32, align 4
  %6 = alloca i32, align 4
  %7 = alloca i32, align 4
  %8 = alloca i32, align 4
  store ptr %0, ptr %2, align 8, !tbaa !4
  call void @llvm.lifetime.start.p0(i64 8, ptr %3) #9
  %9 = load ptr, ptr %2, align 8, !tbaa !4
  %10 = getelementptr inbounds nuw %struct.Mv, ptr %9, i32 0, i32 0
  %11 = load i32, ptr %10, align 4, !tbaa !11
  store i32 %11, ptr %3, align 4, !tbaa !9
  %12 = getelementptr inbounds i32, ptr %3, i64 1
  %13 = load ptr, ptr %2, align 8, !tbaa !4
  %14 = getelementptr inbounds nuw %struct.Mv, ptr %13, i32 0, i32 1
  %15 = load i32, ptr %14, align 4, !tbaa !13
  store i32 %15, ptr %12, align 4, !tbaa !9
  call void @llvm.lifetime.start.p0(i64 4, ptr %4) #9
  store i32 0, ptr %4, align 4, !tbaa !9
  br label %16

16:                                               ; preds = %53, %1
  %17 = load i32, ptr %4, align 4, !tbaa !9
  %18 = icmp slt i32 %17, 2
  br i1 %18, label %20, label %19

19:                                               ; preds = %16
  call void @llvm.lifetime.end.p0(i64 4, ptr %4) #9
  br label %56

20:                                               ; preds = %16
  call void @llvm.lifetime.start.p0(i64 4, ptr %5) #9
  %21 = load i32, ptr %4, align 4, !tbaa !9
  %22 = sext i32 %21 to i64
  %23 = getelementptr inbounds [2 x i32], ptr %3, i64 0, i64 %22
  %24 = load i32, ptr %23, align 4, !tbaa !9
  %25 = ashr i32 %24, 17
  store i32 %25, ptr %5, align 4, !tbaa !9
  call void @llvm.lifetime.start.p0(i64 4, ptr %6) #9
  %26 = load i32, ptr %4, align 4, !tbaa !9
  %27 = sext i32 %26 to i64
  %28 = getelementptr inbounds [2 x i32], ptr %3, i64 0, i64 %27
  %29 = load i32, ptr %28, align 4, !tbaa !9
  %30 = load i32, ptr %5, align 4, !tbaa !9
  %31 = xor i32 %29, %30
  %32 = or i32 %31, 31
  %33 = call i32 @ff_log2_c(i32 noundef %32) #10
  %34 = sub nsw i32 %33, 4
  store i32 %34, ptr %6, align 4, !tbaa !9
  call void @llvm.lifetime.start.p0(i64 4, ptr %7) #9
  %35 = load i32, ptr %6, align 4, !tbaa !9
  %36 = shl i32 1, %35
  %37 = mul nsw i32 -1, %36
  %38 = ashr i32 %37, 1
  store i32 %38, ptr %7, align 4, !tbaa !9
  call void @llvm.lifetime.start.p0(i64 4, ptr %8) #9
  %39 = load i32, ptr %6, align 4, !tbaa !9
  %40 = shl i32 1, %39
  %41 = ashr i32 %40, 2
  store i32 %41, ptr %8, align 4, !tbaa !9
  %42 = load i32, ptr %4, align 4, !tbaa !9
  %43 = sext i32 %42 to i64
  %44 = getelementptr inbounds [2 x i32], ptr %3, i64 0, i64 %43
  %45 = load i32, ptr %44, align 4, !tbaa !9
  %46 = load i32, ptr %8, align 4, !tbaa !9
  %47 = add nsw i32 %45, %46
  %48 = load i32, ptr %7, align 4, !tbaa !9
  %49 = and i32 %47, %48
  %50 = load i32, ptr %4, align 4, !tbaa !9
  %51 = sext i32 %50 to i64
  %52 = getelementptr inbounds [2 x i32], ptr %3, i64 0, i64 %51
  store i32 %49, ptr %52, align 4, !tbaa !9
  call void @llvm.lifetime.end.p0(i64 4, ptr %8) #9
  call void @llvm.lifetime.end.p0(i64 4, ptr %7) #9
  call void @llvm.lifetime.end.p0(i64 4, ptr %6) #9
  call void @llvm.lifetime.end.p0(i64 4, ptr %5) #9
  br label %53

53:                                               ; preds = %20
  %54 = load i32, ptr %4, align 4, !tbaa !9
  %55 = add nsw i32 %54, 1
  store i32 %55, ptr %4, align 4, !tbaa !9
  br label %16, !llvm.loop !237

56:                                               ; preds = %19
  %57 = getelementptr inbounds [2 x i32], ptr %3, i64 0, i64 0
  %58 = load i32, ptr %57, align 4, !tbaa !9
  %59 = load ptr, ptr %2, align 8, !tbaa !4
  %60 = getelementptr inbounds nuw %struct.Mv, ptr %59, i32 0, i32 0
  store i32 %58, ptr %60, align 4, !tbaa !11
  %61 = getelementptr inbounds [2 x i32], ptr %3, i64 0, i64 1
  %62 = load i32, ptr %61, align 4, !tbaa !9
  %63 = load ptr, ptr %2, align 8, !tbaa !4
  %64 = getelementptr inbounds nuw %struct.Mv, ptr %63, i32 0, i32 1
  store i32 %62, ptr %64, align 4, !tbaa !13
  call void @llvm.lifetime.end.p0(i64 8, ptr %3) #9
  ret void
}

; Function Attrs: nounwind uwtable
define internal i32 @check_mvset(ptr noundef %0, ptr noundef %1, i32 noundef %2, i32 noundef %3, ptr noundef %4, i32 noundef %5, i32 noundef %6, ptr noundef %7, i32 noundef %8, i32 noundef %9) #0 {
  %11 = alloca i32, align 4
  %12 = alloca ptr, align 8
  %13 = alloca ptr, align 8
  %14 = alloca i32, align 4
  %15 = alloca i32, align 4
  %16 = alloca ptr, align 8
  %17 = alloca i32, align 4
  %18 = alloca i32, align 4
  %19 = alloca ptr, align 8
  %20 = alloca i32, align 4
  %21 = alloca i32, align 4
  %22 = alloca i32, align 4
  %23 = alloca i32, align 4
  %24 = alloca i32, align 4
  %25 = alloca i32, align 4
  %26 = alloca i32, align 4
  store ptr %0, ptr %12, align 8, !tbaa !4
  store ptr %1, ptr %13, align 8, !tbaa !4
  store i32 %2, ptr %14, align 4, !tbaa !9
  store i32 %3, ptr %15, align 4, !tbaa !9
  store ptr %4, ptr %16, align 8, !tbaa !33
  store i32 %5, ptr %17, align 4, !tbaa !9
  store i32 %6, ptr %18, align 4, !tbaa !9
  store ptr %7, ptr %19, align 8, !tbaa !33
  store i32 %8, ptr %20, align 4, !tbaa !9
  store i32 %9, ptr %21, align 4, !tbaa !9
  call void @llvm.lifetime.start.p0(i64 4, ptr %22) #9
  %27 = load ptr, ptr %16, align 8, !tbaa !33
  %28 = load i32, ptr %17, align 4, !tbaa !9
  %29 = sext i32 %28 to i64
  %30 = getelementptr inbounds %struct.RefPicList, ptr %27, i64 %29
  %31 = getelementptr inbounds nuw %struct.RefPicList, ptr %30, i32 0, i32 0
  %32 = load i32, ptr %18, align 4, !tbaa !9
  %33 = sext i32 %32 to i64
  %34 = getelementptr inbounds [29 x %struct.VVCRefPic], ptr %31, i64 0, i64 %33
  %35 = getelementptr inbounds nuw %struct.VVCRefPic, ptr %34, i32 0, i32 2
  %36 = load i32, ptr %35, align 4, !tbaa !236
  store i32 %36, ptr %22, align 4, !tbaa !9
  call void @llvm.lifetime.start.p0(i64 4, ptr %23) #9
  %37 = load ptr, ptr %19, align 8, !tbaa !33
  %38 = load i32, ptr %20, align 4, !tbaa !9
  %39 = sext i32 %38 to i64
  %40 = getelementptr inbounds %struct.RefPicList, ptr %37, i64 %39
  %41 = getelementptr inbounds nuw %struct.RefPicList, ptr %40, i32 0, i32 0
  %42 = load i32, ptr %21, align 4, !tbaa !9
  %43 = sext i32 %42 to i64
  %44 = getelementptr inbounds [29 x %struct.VVCRefPic], ptr %41, i64 0, i64 %43
  %45 = getelementptr inbounds nuw %struct.VVCRefPic, ptr %44, i32 0, i32 2
  %46 = load i32, ptr %45, align 4, !tbaa !236
  store i32 %46, ptr %23, align 4, !tbaa !9
  call void @llvm.lifetime.start.p0(i64 4, ptr %24) #9
  call void @llvm.lifetime.start.p0(i64 4, ptr %25) #9
  %47 = load i32, ptr %22, align 4, !tbaa !9
  %48 = load i32, ptr %23, align 4, !tbaa !9
  %49 = icmp ne i32 %47, %48
  br i1 %49, label %50, label %55

50:                                               ; preds = %10
  %51 = load ptr, ptr %12, align 8, !tbaa !4
  %52 = getelementptr inbounds nuw %struct.Mv, ptr %51, i32 0, i32 0
  store i32 0, ptr %52, align 4, !tbaa !11
  %53 = load ptr, ptr %12, align 8, !tbaa !4
  %54 = getelementptr inbounds nuw %struct.Mv, ptr %53, i32 0, i32 1
  store i32 0, ptr %54, align 4, !tbaa !13
  store i32 0, ptr %11, align 4
  store i32 1, ptr %26, align 4
  br label %106

55:                                               ; preds = %10
  %56 = load i32, ptr %14, align 4, !tbaa !9
  %57 = load ptr, ptr %19, align 8, !tbaa !33
  %58 = load i32, ptr %20, align 4, !tbaa !9
  %59 = sext i32 %58 to i64
  %60 = getelementptr inbounds %struct.RefPicList, ptr %57, i64 %59
  %61 = getelementptr inbounds nuw %struct.RefPicList, ptr %60, i32 0, i32 0
  %62 = load i32, ptr %21, align 4, !tbaa !9
  %63 = sext i32 %62 to i64
  %64 = getelementptr inbounds [29 x %struct.VVCRefPic], ptr %61, i64 0, i64 %63
  %65 = getelementptr inbounds nuw %struct.VVCRefPic, ptr %64, i32 0, i32 1
  %66 = load i32, ptr %65, align 8, !tbaa !36
  %67 = sub nsw i32 %56, %66
  store i32 %67, ptr %24, align 4, !tbaa !9
  %68 = load i32, ptr %15, align 4, !tbaa !9
  %69 = load ptr, ptr %16, align 8, !tbaa !33
  %70 = load i32, ptr %17, align 4, !tbaa !9
  %71 = sext i32 %70 to i64
  %72 = getelementptr inbounds %struct.RefPicList, ptr %69, i64 %71
  %73 = getelementptr inbounds nuw %struct.RefPicList, ptr %72, i32 0, i32 0
  %74 = load i32, ptr %18, align 4, !tbaa !9
  %75 = sext i32 %74 to i64
  %76 = getelementptr inbounds [29 x %struct.VVCRefPic], ptr %73, i64 0, i64 %75
  %77 = getelementptr inbounds nuw %struct.VVCRefPic, ptr %76, i32 0, i32 1
  %78 = load i32, ptr %77, align 8, !tbaa !36
  %79 = sub nsw i32 %68, %78
  store i32 %79, ptr %25, align 4, !tbaa !9
  %80 = load ptr, ptr %13, align 8, !tbaa !4
  call void @mv_compression(ptr noundef %80)
  %81 = load i32, ptr %22, align 4, !tbaa !9
  %82 = icmp ne i32 %81, 0
  br i1 %82, label %87, label %83

83:                                               ; preds = %55
  %84 = load i32, ptr %24, align 4, !tbaa !9
  %85 = load i32, ptr %25, align 4, !tbaa !9
  %86 = icmp eq i32 %84, %85
  br i1 %86, label %87, label %100

87:                                               ; preds = %83, %55
  %88 = load ptr, ptr %13, align 8, !tbaa !4
  %89 = getelementptr inbounds nuw %struct.Mv, ptr %88, i32 0, i32 0
  %90 = load i32, ptr %89, align 4, !tbaa !11
  %91 = call i32 @av_clip_intp2_c(i32 noundef %90, i32 noundef 17) #10
  %92 = load ptr, ptr %12, align 8, !tbaa !4
  %93 = getelementptr inbounds nuw %struct.Mv, ptr %92, i32 0, i32 0
  store i32 %91, ptr %93, align 4, !tbaa !11
  %94 = load ptr, ptr %13, align 8, !tbaa !4
  %95 = getelementptr inbounds nuw %struct.Mv, ptr %94, i32 0, i32 1
  %96 = load i32, ptr %95, align 4, !tbaa !13
  %97 = call i32 @av_clip_intp2_c(i32 noundef %96, i32 noundef 17) #10
  %98 = load ptr, ptr %12, align 8, !tbaa !4
  %99 = getelementptr inbounds nuw %struct.Mv, ptr %98, i32 0, i32 1
  store i32 %97, ptr %99, align 4, !tbaa !13
  br label %105

100:                                              ; preds = %83
  %101 = load ptr, ptr %12, align 8, !tbaa !4
  %102 = load ptr, ptr %13, align 8, !tbaa !4
  %103 = load i32, ptr %24, align 4, !tbaa !9
  %104 = load i32, ptr %25, align 4, !tbaa !9
  call void @ff_vvc_mv_scale(ptr noundef %101, ptr noundef %102, i32 noundef %103, i32 noundef %104)
  br label %105

105:                                              ; preds = %100, %87
  store i32 1, ptr %11, align 4
  store i32 1, ptr %26, align 4
  br label %106

106:                                              ; preds = %105, %50
  call void @llvm.lifetime.end.p0(i64 4, ptr %25) #9
  call void @llvm.lifetime.end.p0(i64 4, ptr %24) #9
  call void @llvm.lifetime.end.p0(i64 4, ptr %23) #9
  call void @llvm.lifetime.end.p0(i64 4, ptr %22) #9
  %107 = load i32, ptr %11, align 4
  ret i32 %107
}