; Function Attrs: nofree norecurse nosync nounwind memory(argmem: readwrite) uwtable
define internal fastcc range(i32 0, 2) i32 @check_mvset(ptr noundef writeonly captures(none) %0, ptr noundef captures(none) %1, i32 noundef %2, i32 noundef %3, ptr noundef readonly captures(none) %4, i32 noundef range(i32 0, 2) %5, i32 noundef range(i32 -128, 128) %6, ptr noundef readonly captures(none) %7, i32 noundef range(i32 0, 2) %8, i32 noundef range(i32 -128, 128) %9) unnamed_addr #11 {
  %.sroa.0 = alloca i32, align 4
  %.sroa.5 = alloca i32, align 4
  %11 = zext nneg i32 %5 to i64
  %12 = getelementptr inbounds nuw %struct.RefPicList, ptr %4, i64 %11
  %13 = sext i32 %6 to i64
  %14 = getelementptr inbounds [29 x %struct.VVCRefPic], ptr %12, i64 0, i64 %13
  %15 = getelementptr inbounds nuw i8, ptr %14, i64 12
  %16 = load i32, ptr %15, align 4, !tbaa !224
  %17 = zext nneg i32 %8 to i64
  %18 = getelementptr inbounds nuw %struct.RefPicList, ptr %7, i64 %17
  %19 = sext i32 %9 to i64
  %20 = getelementptr inbounds [29 x %struct.VVCRefPic], ptr %18, i64 0, i64 %19
  %21 = getelementptr inbounds nuw i8, ptr %20, i64 12
  %22 = load i32, ptr %21, align 4, !tbaa !224
  %.not = icmp eq i32 %16, %22
  br i1 %.not, label %24, label %23

23:                                               ; preds = %10
  store i32 0, ptr %0, align 4, !tbaa !4
  br label %88

24:                                               ; preds = %10
  %25 = getelementptr inbounds nuw i8, ptr %20, i64 8
  %26 = load i32, ptr %25, align 8, !tbaa !68
  %27 = getelementptr inbounds nuw i8, ptr %14, i64 8
  %28 = load i32, ptr %27, align 8, !tbaa !68
  call void @llvm.lifetime.start.p0(i64 4, ptr nonnull %.sroa.0)
  call void @llvm.lifetime.start.p0(i64 4, ptr nonnull %.sroa.5)
  %29 = load i32, ptr %1, align 4, !tbaa !4
  store i32 %29, ptr %.sroa.0, align 4, !tbaa !131
  %30 = getelementptr inbounds nuw i8, ptr %1, i64 4
  %31 = load i32, ptr %30, align 4, !tbaa !9
  store i32 %31, ptr %.sroa.5, align 4, !tbaa !131
  br label %32

32:                                               ; preds = %24, %32
  %33 = phi i1 [ true, %24 ], [ false, %32 ]
  %indvars.iv.sroa.phi = phi ptr [ %.sroa.0, %24 ], [ %.sroa.5, %32 ]
  %34 = load i32, ptr %indvars.iv.sroa.phi, align 4, !tbaa !131
  %35 = ashr i32 %34, 17
  %36 = xor i32 %35, %34
  %37 = or i32 %36, 31
  %.not.i.i = icmp ult i32 %36, 65536
  %38 = lshr i32 %36, 16
  %spec.select.i.i = select i1 %.not.i.i, i32 %37, i32 %38
  %spec.select12.i.i = select i1 %.not.i.i, i32 0, i32 16
  %.not11.i.i = icmp samesign ult i32 %spec.select.i.i, 256
  %39 = lshr i32 %spec.select.i.i, 8
  %40 = or disjoint i32 %spec.select12.i.i, 8
  %.110.i.i = select i1 %.not11.i.i, i32 %spec.select.i.i, i32 %39
  %.1.i.i = select i1 %.not11.i.i, i32 %spec.select12.i.i, i32 %40
  %41 = zext nneg i32 %.110.i.i to i64
  %42 = getelementptr inbounds nuw [256 x i8], ptr @ff_log2_tab, i64 0, i64 %41
  %43 = load i8, ptr %42, align 1, !tbaa !29
  %44 = zext i8 %43 to i32
  %45 = add nsw i32 %44, -4
  %46 = add nsw i32 %45, %.1.i.i
  %47 = shl nuw i32 1, %46
  %48 = sub nsw i32 0, %47
  %49 = ashr i32 %48, 1
  %50 = ashr i32 %47, 2
  %51 = add nsw i32 %50, %34
  %52 = and i32 %51, %49
  store i32 %52, ptr %indvars.iv.sroa.phi, align 4, !tbaa !131
  br i1 %33, label %32, label %mv_compression.exit, !llvm.loop !225

mv_compression.exit:                              ; preds = %32
  %53 = sub nsw i32 %2, %26
  %54 = sub nsw i32 %3, %28
  %.sroa.0.0..sroa.0.0. = load i32, ptr %.sroa.0, align 4, !tbaa !131
  store i32 %.sroa.0.0..sroa.0.0., ptr %1, align 4, !tbaa !4
  %.sroa.5.0..sroa.5.4. = load i32, ptr %.sroa.5, align 4, !tbaa !131
  store i32 %.sroa.5.0..sroa.5.4., ptr %30, align 4, !tbaa !9
  call void @llvm.lifetime.end.p0(i64 4, ptr nonnull %.sroa.0)
  call void @llvm.lifetime.end.p0(i64 4, ptr nonnull %.sroa.5)
  %.not33 = icmp ne i32 %16, 0
  %55 = icmp eq i32 %53, %54
  %or.cond = select i1 %.not33, i1 true, i1 %55
  br i1 %or.cond, label %56, label %59

56:                                               ; preds = %mv_compression.exit
  %57 = tail call i32 @llvm.smax.i32(i32 %.sroa.0.0..sroa.0.0., i32 -131072)
  %.0.i35 = tail call i32 @llvm.smin.i32(i32 %57, i32 131071)
  store i32 %.0.i35, ptr %0, align 4, !tbaa !4
  %58 = tail call i32 @llvm.smax.i32(i32 %.sroa.5.0..sroa.5.4., i32 -131072)
  %.0.i = tail call i32 @llvm.smin.i32(i32 %58, i32 131071)
  br label %88

59:                                               ; preds = %mv_compression.exit
  %60 = tail call i32 @llvm.smax.i32(i32 %53, i32 -128)
  %61 = tail call i32 @llvm.smin.i32(i32 %60, i32 127)
  %62 = tail call i32 @llvm.smax.i32(i32 %54, i32 -128)
  %63 = tail call i32 @llvm.smin.i32(i32 %62, i32 127)
  %64 = tail call i32 @llvm.abs.i32(i32 %61, i1 true)
  %65 = lshr i32 %64, 1
  %66 = trunc nuw nsw i32 %65 to i16
  %.lhs.trunc.i = add nuw nsw i16 %66, 16384
  %.rhs.trunc.i = trunc nsw i32 %61 to i16
  %67 = sdiv i16 %.lhs.trunc.i, %.rhs.trunc.i
  %.sext.i = sext i16 %67 to i32
  %68 = mul nsw i32 %63, %.sext.i
  %69 = add nsw i32 %68, 32
  %70 = ashr i32 %69, 6
  %71 = add nsw i32 %70, 4096
  %.not.i18.i = icmp ult i32 %71, 8192
  %72 = icmp sgt i32 %68, -33
  %73 = select i1 %72, i32 4095, i32 -4096
  %.0.i19.i = select i1 %.not.i18.i, i32 %70, i32 %73
  %74 = mul nsw i32 %.0.i19.i, %.sroa.0.0..sroa.0.0.
  %75 = add nsw i32 %74, 127
  %.lobit.i = lshr i32 %74, 31
  %76 = add nsw i32 %75, %.lobit.i
  %77 = ashr i32 %76, 8
  %78 = add nsw i32 %77, 131072
  %.not.i20.i = icmp ult i32 %78, 262144
  %79 = icmp sgt i32 %76, -1
  %80 = select i1 %79, i32 131071, i32 -131072
  %.0.i21.i = select i1 %.not.i20.i, i32 %77, i32 %80
  store i32 %.0.i21.i, ptr %0, align 4, !tbaa !4
  %81 = mul nsw i32 %.0.i19.i, %.sroa.5.0..sroa.5.4.
  %82 = add nsw i32 %81, 127
  %.lobit15.i = lshr i32 %81, 31
  %83 = add nsw i32 %82, %.lobit15.i
  %84 = ashr i32 %83, 8
  %85 = add nsw i32 %84, 131072
  %.not.i22.i = icmp ult i32 %85, 262144
  %86 = icmp sgt i32 %83, -1
  %87 = select i1 %86, i32 131071, i32 -131072
  %.0.i23.i = select i1 %.not.i22.i, i32 %84, i32 %87
  br label %88

88:                                               ; preds = %56, %59, %23
  %.0.i.sink = phi i32 [ %.0.i, %56 ], [ %.0.i23.i, %59 ], [ 0, %23 ]
  %.0 = phi i32 [ 1, %56 ], [ 1, %59 ], [ 0, %23 ]
  %89 = getelementptr inbounds nuw i8, ptr %0, i64 4
  store i32 %.0.i.sink, ptr %89, align 4, !tbaa !9
  ret i32 %.0
}